target datalayout = "e-m:e-p270:32:32-p271:32:32-p272:64:64-i64:64-i128:128-f80:128-n8:16:32:64-S128"
target triple = "x86_64-pc-linux-gnu"

%struct._zend_array = type { %struct._zend_refcounted_h, %union.anon.0, i32, %union.anon.1, i32, i32, i32, i32, i64, ptr }
%struct._zend_refcounted_h = type { i32, %union.anon }
%union.anon = type { i32 }
%union.anon.0 = type { i32 }
%union.anon.1 = type { ptr }

@uninitialized_bucket = internal constant [2 x i32] [i32 -1, i32 -1], align 4
@.str = private unnamed_addr constant [64 x i8] c"Possible integer overflow in memory allocation (%u * %zu + %zu)\00", align 1

; Function Attrs: nounwind uwtable
define void @_zend_hash_init(ptr noundef %0, i32 noundef %1, ptr noundef %2, i1 noundef zeroext %3) #0 {
  %5 = alloca ptr, align 8
  %6 = alloca i32, align 4
  %7 = alloca i32, align 4
  %8 = alloca i32, align 4
  %9 = alloca ptr, align 8
  %10 = alloca i32, align 4
  %11 = alloca ptr, align 8
  %12 = alloca i8, align 1
  %13 = alloca ptr, align 8
  %14 = alloca i32, align 4
  %15 = alloca ptr, align 8
  %16 = alloca i8, align 1
  store ptr %0, ptr %13, align 8
  store i32 %1, ptr %14, align 4
  store ptr %2, ptr %15, align 8
  %17 = zext i1 %3 to i8
  store i8 %17, ptr %16, align 1
  %18 = load ptr, ptr %13, align 8
  %19 = load i32, ptr %14, align 4
  %20 = load ptr, ptr %15, align 8
  %21 = load i8, ptr %16, align 1
  %22 = trunc i8 %21 to i1
  store ptr %18, ptr %9, align 8
  store i32 %19, ptr %10, align 4
  store ptr %20, ptr %11, align 8
  %23 = zext i1 %22 to i8
  store i8 %23, ptr %12, align 1
  %24 = load ptr, ptr %9, align 8
  store ptr %24, ptr %5, align 8
  store i32 1, ptr %6, align 4
  %25 = load i32, ptr %6, align 4
  %26 = load ptr, ptr %5, align 8
  store i32 %25, ptr %26, align 4
  %27 = load i8, ptr %12, align 1
  %28 = trunc i8 %27 to i1
  %29 = select i1 %28, i32 144, i32 0
  %30 = or i32 7, %29
  %31 = load ptr, ptr %9, align 8
  %32 = getelementptr inbounds %struct._zend_refcounted_h, ptr %31, i32 0, i32 1
  store i32 %30, ptr %32, align 4
  %33 = load ptr, ptr %9, align 8
  %34 = getelementptr inbounds %struct._zend_array, ptr %33, i32 0, i32 1
  store i32 8, ptr %34, align 8
  %35 = load ptr, ptr %9, align 8
  %36 = getelementptr inbounds %struct._zend_array, ptr %35, i32 0, i32 2
  store i32 -2, ptr %36, align 4
  %37 = load ptr, ptr %9, align 8
  %38 = getelementptr inbounds %struct._zend_array, ptr %37, i32 0, i32 2
  %39 = load i32, ptr %38, align 4
  %40 = sub i32 0, %39
  %41 = zext i32 %40 to i64
  %42 = mul i64 %41, 4
  %43 = getelementptr inbounds i8, ptr @uninitialized_bucket, i64 %42
  %44 = load ptr, ptr %9, align 8
  %45 = getelementptr inbounds %struct._zend_array, ptr %44, i32 0, i32 3
  store ptr %43, ptr %45, align 8
  %46 = load ptr, ptr %9, align 8
  %47 = getelementptr inbounds %struct._zend_array, ptr %46, i32 0, i32 4
  store i32 0, ptr %47, align 8
  %48 = load ptr, ptr %9, align 8
  %49 = getelementptr inbounds %struct._zend_array, ptr %48, i32 0, i32 5
  store i32 0, ptr %49, align 4
  %50 = load ptr, ptr %9, align 8
  %51 = getelementptr inbounds %struct._zend_array, ptr %50, i32 0, i32 7
  store i32 0, ptr %51, align 4
  %52 = load ptr, ptr %9, align 8
  %53 = getelementptr inbounds %struct._zend_array, ptr %52, i32 0, i32 8
  store i64 -9223372036854775808, ptr %53, align 8
  %54 = load ptr, ptr %11, align 8
  %55 = load ptr, ptr %9, align 8
  %56 = getelementptr inbounds %struct._zend_array, ptr %55, i32 0, i32 9
  store ptr %54, ptr %56, align 8
  %57 = load i32, ptr %10, align 4
  store i32 %57, ptr %8, align 4
  %58 = load i32, ptr %8, align 4
  %59 = icmp ule i32 %58, 8
  br i1 %59, label %60, label %61

60:                                               ; preds = %4
  store i32 8, ptr %7, align 4
  br label %72

61:                                               ; preds = %4
  %62 = load i32, ptr %8, align 4
  %63 = icmp ugt i32 %62, 1073741824
  br i1 %63, label %64, label %66

64:                                               ; preds = %61
  %65 = load i32, ptr %8, align 4
  call void (i32, ptr, ...) @zend_error_noreturn(i32 noundef 1, ptr noundef @.str, i32 noundef %65, i64 noundef 32, i64 noundef 32) #16
  unreachable

66:                                               ; preds = %61
  %67 = load i32, ptr %8, align 4
  %68 = sub i32 %67, 1
  %69 = call i32 @llvm.ctlz.i32(i32 %68, i1 true)
  %70 = xor i32 %69, 31
  %71 = shl i32 2, %70
  store i32 %71, ptr %7, align 4
  br label %72

72:                                               ; preds = %66, %60
  %73 = load i32, ptr %7, align 4
  %74 = load ptr, ptr %9, align 8
  %75 = getelementptr inbounds %struct._zend_array, ptr %74, i32 0, i32 6
  store i32 %73, ptr %75, align 8
  ret void
}