; Function Attrs: nounwind uwtable
define void @_zend_hash_init(ptr nocapture noundef writeonly %0, i32 noundef %1, ptr noundef %2, i1 noundef zeroext %3) local_unnamed_addr #0 {
  store i32 1, ptr %0, align 4
  %5 = select i1 %3, i32 151, i32 7
  %6 = getelementptr inbounds i8, ptr %0, i64 4
  store i32 %5, ptr %6, align 4
  %7 = getelementptr inbounds i8, ptr %0, i64 8
  store i32 8, ptr %7, align 8
  %8 = getelementptr inbounds i8, ptr %0, i64 12
  store i32 -2, ptr %8, align 4
  %9 = getelementptr inbounds i8, ptr %0, i64 16
  store ptr getelementptr inbounds ([2 x i32], ptr @uninitialized_bucket, i64 1, i64 0), ptr %9, align 8
  %10 = getelementptr inbounds i8, ptr %0, i64 24
  store i32 0, ptr %10, align 8
  %11 = getelementptr inbounds i8, ptr %0, i64 28
  store i32 0, ptr %11, align 4
  %12 = getelementptr inbounds i8, ptr %0, i64 36
  store i32 0, ptr %12, align 4
  %13 = getelementptr inbounds i8, ptr %0, i64 40
  store i64 -9223372036854775808, ptr %13, align 8
  %14 = getelementptr inbounds i8, ptr %0, i64 48
  store ptr %2, ptr %14, align 8
  %15 = icmp ult i32 %1, 9
  br i1 %15, label %24, label %16

16:                                               ; preds = %4
  %17 = icmp ugt i32 %1, 1073741824
  br i1 %17, label %18, label %19

18:                                               ; preds = %16
  tail call void (i32, ptr, ...) @zend_error_noreturn(i32 noundef 1, ptr noundef nonnull @.str, i32 noundef %1, i64 noundef 32, i64 noundef 32) #28
  unreachable

19:                                               ; preds = %16
  %20 = add nsw i32 %1, -1
  %21 = tail call i32 @llvm.ctlz.i32(i32 %20, i1 true), !range !5
  %22 = xor i32 %21, 31
  %23 = shl nuw nsw i32 2, %22
  br label %24

24:                                               ; preds = %4, %19
  %.0 = phi i32 [ %23, %19 ], [ 8, %4 ]
  %25 = getelementptr inbounds i8, ptr %0, i64 32
  store i32 %.0, ptr %25, align 8
  ret void
}